target datalayout = "e-m:e-p270:32:32-p271:32:32-p272:64:64-i64:64-i128:128-f80:128-n8:16:32:64-S128"
target triple = "x86_64-pc-linux-gnu"

%struct.usbll_endpoint_info = type { i32, i32, i16, i8, i8, i32, i32, i32, i32 }

@.str.178 = private unnamed_addr constant [29 x i8] c"%s:%u: failed assertion \22%s\22\00", align 1
@.str.179 = private unnamed_addr constant [31 x i8] c"epan/dissectors/packet-usbll.c\00", align 1
@.str.202 = private unnamed_addr constant [34 x i8] c"ep_info->type != USBLL_EP_UNKNOWN\00", align 1
@.str.203 = private unnamed_addr constant [34 x i8] c"ep_info->type != USBLL_EP_CONTROL\00", align 1
@.str.204 = private unnamed_addr constant [30 x i8] c"ep_info->max_packet_size != 0\00", align 1
@.str.205 = private unnamed_addr constant [34 x i8] c"ep_info->type == USBLL_EP_CONTROL\00", align 1

; Function Attrs: null_pointer_is_valid sspstrong uwtable
define internal zeroext i1 @packet_ends_transfer(ptr noundef %0, i32 noundef %1, i32 noundef %2) #0 {
  %4 = alloca i1, align 1
  %5 = alloca ptr, align 8
  %6 = alloca i32, align 4
  %7 = alloca i32, align 4
  %8 = alloca i32, align 4
  %9 = alloca i32, align 4
  store ptr %0, ptr %5, align 8
  store i32 %1, ptr %6, align 4
  store i32 %2, ptr %7, align 4
  %10 = load ptr, ptr %5, align 8
  %11 = getelementptr inbounds nuw %struct.usbll_endpoint_info, ptr %10, i32 0, i32 0
  %12 = load i32, ptr %11, align 4
  %13 = icmp ne i32 %12, 0
  br i1 %13, label %14, label %15

14:                                               ; preds = %3
  br label %17

15:                                               ; preds = %3
  call void (ptr, ...) @proto_report_dissector_bug(ptr noundef @.str.178, ptr noundef @.str.179, i32 noundef 1653, ptr noundef @.str.202) #14
  unreachable

16:                                               ; No predecessors!
  br label %17

17:                                               ; preds = %16, %14
  %18 = load ptr, ptr %5, align 8
  %19 = getelementptr inbounds nuw %struct.usbll_endpoint_info, ptr %18, i32 0, i32 8
  %20 = load i32, ptr %19, align 4
  %21 = icmp ne i32 %20, 0
  br i1 %21, label %22, label %32

22:                                               ; preds = %17
  %23 = load i32, ptr %6, align 4
  %24 = load i32, ptr %7, align 4
  %25 = add i32 %23, %24
  %26 = load ptr, ptr %5, align 8
  %27 = getelementptr inbounds nuw %struct.usbll_endpoint_info, ptr %26, i32 0, i32 8
  %28 = load i32, ptr %27, align 4
  %29 = icmp uge i32 %25, %28
  br i1 %29, label %30, label %31

30:                                               ; preds = %22
  store i1 true, ptr %4, align 1
  br label %118

31:                                               ; preds = %22
  br label %93

32:                                               ; preds = %17
  %33 = load ptr, ptr %5, align 8
  %34 = getelementptr inbounds nuw %struct.usbll_endpoint_info, ptr %33, i32 0, i32 0
  %35 = load i32, ptr %34, align 4
  %36 = icmp ne i32 %35, 1
  br i1 %36, label %37, label %38

37:                                               ; preds = %32
  br label %40

38:                                               ; preds = %32
  call void (ptr, ...) @proto_report_dissector_bug(ptr noundef @.str.178, ptr noundef @.str.179, i32 noundef 1667, ptr noundef @.str.203) #14
  unreachable

39:                                               ; No predecessors!
  br label %40

40:                                               ; preds = %39, %37
  %41 = load ptr, ptr %5, align 8
  %42 = getelementptr inbounds nuw %struct.usbll_endpoint_info, ptr %41, i32 0, i32 2
  %43 = load i16, ptr %42, align 4
  %44 = zext i16 %43 to i32
  %45 = icmp ne i32 %44, 0
  br i1 %45, label %46, label %47

46:                                               ; preds = %40
  br label %49

47:                                               ; preds = %40
  call void (ptr, ...) @proto_report_dissector_bug(ptr noundef @.str.178, ptr noundef @.str.179, i32 noundef 1668, ptr noundef @.str.204) #14
  unreachable

48:                                               ; No predecessors!
  br label %49

49:                                               ; preds = %48, %46
  %50 = load ptr, ptr %5, align 8
  %51 = getelementptr inbounds nuw %struct.usbll_endpoint_info, ptr %50, i32 0, i32 0
  %52 = load i32, ptr %51, align 4
  %53 = icmp ne i32 %52, 2
  br i1 %53, label %54, label %92

54:                                               ; preds = %49
  %55 = load ptr, ptr %5, align 8
  %56 = getelementptr inbounds nuw %struct.usbll_endpoint_info, ptr %55, i32 0, i32 2
  %57 = load i16, ptr %56, align 4
  %58 = zext i16 %57 to i32
  %59 = and i32 %58, 6144
  %60 = ashr i32 %59, 11
  %61 = icmp ne i32 %60, 0
  br i1 %61, label %62, label %91

62:                                               ; preds = %54
  call void @llvm.lifetime.start.p0(i64 4, ptr %8) #11
  %63 = load ptr, ptr %5, align 8
  %64 = getelementptr inbounds nuw %struct.usbll_endpoint_info, ptr %63, i32 0, i32 2
  %65 = load i16, ptr %64, align 4
  %66 = zext i16 %65 to i32
  %67 = and i32 %66, 6144
  %68 = ashr i32 %67, 11
  %69 = add i32 %68, 1
  %70 = load ptr, ptr %5, align 8
  %71 = getelementptr inbounds nuw %struct.usbll_endpoint_info, ptr %70, i32 0, i32 2
  %72 = load i16, ptr %71, align 4
  %73 = zext i16 %72 to i32
  %74 = and i32 %73, 2047
  %75 = mul i32 %69, %74
  store i32 %75, ptr %8, align 4
  %76 = load i32, ptr %7, align 4
  %77 = load ptr, ptr %5, align 8
  %78 = getelementptr inbounds nuw %struct.usbll_endpoint_info, ptr %77, i32 0, i32 2
  %79 = load i16, ptr %78, align 4
  %80 = zext i16 %79 to i32
  %81 = and i32 %80, 2047
  %82 = icmp slt i32 %76, %81
  br i1 %82, label %83, label %84

83:                                               ; preds = %62
  store i1 true, ptr %4, align 1
  store i32 1, ptr %9, align 4
  br label %90

84:                                               ; preds = %62
  %85 = load i32, ptr %6, align 4
  %86 = load i32, ptr %7, align 4
  %87 = add i32 %85, %86
  %88 = load i32, ptr %8, align 4
  %89 = icmp uge i32 %87, %88
  store i1 %89, ptr %4, align 1
  store i32 1, ptr %9, align 4
  br label %90

90:                                               ; preds = %84, %83
  call void @llvm.lifetime.end.p0(i64 4, ptr %8) #11
  br label %118

91:                                               ; preds = %54
  store i1 true, ptr %4, align 1
  br label %118

92:                                               ; preds = %49
  br label %93

93:                                               ; preds = %92, %31
  %94 = load ptr, ptr %5, align 8
  %95 = getelementptr inbounds nuw %struct.usbll_endpoint_info, ptr %94, i32 0, i32 2
  %96 = load i16, ptr %95, align 4
  %97 = icmp ne i16 %96, 0
  br i1 %97, label %98, label %105

98:                                               ; preds = %93
  %99 = load i32, ptr %7, align 4
  %100 = load ptr, ptr %5, align 8
  %101 = getelementptr inbounds nuw %struct.usbll_endpoint_info, ptr %100, i32 0, i32 2
  %102 = load i16, ptr %101, align 4
  %103 = zext i16 %102 to i32
  %104 = icmp slt i32 %99, %103
  store i1 %104, ptr %4, align 1
  br label %118

105:                                              ; preds = %93
  %106 = load ptr, ptr %5, align 8
  %107 = getelementptr inbounds nuw %struct.usbll_endpoint_info, ptr %106, i32 0, i32 0
  %108 = load i32, ptr %107, align 4
  %109 = icmp eq i32 %108, 1
  br i1 %109, label %110, label %111

110:                                              ; preds = %105
  br label %113

111:                                              ; preds = %105
  call void (ptr, ...) @proto_report_dissector_bug(ptr noundef @.str.178, ptr noundef @.str.179, i32 noundef 1699, ptr noundef @.str.205) #14
  unreachable

112:                                              ; No predecessors!
  br label %113

113:                                              ; preds = %112, %110
  %114 = load i32, ptr %7, align 4
  %115 = icmp slt i32 %114, 64
  br i1 %115, label %116, label %117

116:                                              ; preds = %113
  store i1 true, ptr %4, align 1
  br label %118

117:                                              ; preds = %113
  store i1 false, ptr %4, align 1
  br label %118

118:                                              ; preds = %117, %116, %98, %91, %90, %30
  %119 = load i1, ptr %4, align 1
  ret i1 %119
}