; Function Attrs: null_pointer_is_valid sspstrong uwtable
define internal fastcc zeroext i1 @packet_ends_transfer(ptr noundef readonly captures(none) %0, i32 noundef %1, i32 noundef %2) unnamed_addr #2 {
  %4 = load i32, ptr %0, align 4
  %.not = icmp eq i32 %4, 0
  br i1 %.not, label %5, label %6

5:                                                ; preds = %3
  tail call void (ptr, ...) @proto_report_dissector_bug(ptr noundef nonnull @.str.178, ptr noundef nonnull @.str.179, i32 noundef 1653, ptr noundef nonnull @.str.202) #15
  unreachable

6:                                                ; preds = %3
  %7 = getelementptr inbounds nuw i8, ptr %0, i64 24
  %8 = load i32, ptr %7, align 4
  %.not27 = icmp eq i32 %8, 0
  br i1 %.not27, label %11, label %9

9:                                                ; preds = %6
  %10 = add i32 %2, %1
  %.not32 = icmp ult i32 %10, %8
  br i1 %.not32, label %29, label %37

11:                                               ; preds = %6
  %.not28 = icmp eq i32 %4, 1
  br i1 %.not28, label %12, label %13

12:                                               ; preds = %11
  tail call void (ptr, ...) @proto_report_dissector_bug(ptr noundef nonnull @.str.178, ptr noundef nonnull @.str.179, i32 noundef 1667, ptr noundef nonnull @.str.203) #15
  unreachable

13:                                               ; preds = %11
  %14 = getelementptr inbounds nuw i8, ptr %0, i64 8
  %15 = load i16, ptr %14, align 4
  %16 = zext i16 %15 to i32
  %.not29 = icmp eq i16 %15, 0
  br i1 %.not29, label %17, label %18

17:                                               ; preds = %13
  tail call void (ptr, ...) @proto_report_dissector_bug(ptr noundef nonnull @.str.178, ptr noundef nonnull @.str.179, i32 noundef 1668, ptr noundef nonnull @.str.204) #15
  unreachable

18:                                               ; preds = %13
  %.not30 = icmp eq i32 %4, 2
  br i1 %.not30, label %.thread, label %19

19:                                               ; preds = %18
  %20 = lshr i32 %16, 11
  %21 = and i32 %20, 3
  %.not31 = icmp eq i32 %21, 0
  br i1 %.not31, label %37, label %22

22:                                               ; preds = %19
  %23 = and i32 %16, 2047
  %24 = icmp slt i32 %2, %23
  %25 = add nuw nsw i32 %21, 1
  %26 = mul nuw nsw i32 %25, %23
  %27 = add i32 %2, %1
  %28 = icmp uge i32 %27, %26
  %.1 = select i1 %24, i1 true, i1 %28
  br label %37

29:                                               ; preds = %9
  %30 = getelementptr inbounds nuw i8, ptr %0, i64 8
  %31 = load i16, ptr %30, align 4
  %.not33 = icmp eq i16 %31, 0
  br i1 %.not33, label %33, label %._crit_edge

._crit_edge:                                      ; preds = %29
  %.pre = zext i16 %31 to i32
  br label %.thread

.thread:                                          ; preds = %18, %._crit_edge
  %.pre-phi = phi i32 [ %.pre, %._crit_edge ], [ %16, %18 ]
  %32 = icmp slt i32 %2, %.pre-phi
  br label %37

33:                                               ; preds = %29
  %34 = icmp eq i32 %4, 1
  br i1 %34, label %35, label %.thread35

.thread35:                                        ; preds = %33
  tail call void (ptr, ...) @proto_report_dissector_bug(ptr noundef nonnull @.str.178, ptr noundef nonnull @.str.179, i32 noundef 1699, ptr noundef nonnull @.str.205) #15
  unreachable

35:                                               ; preds = %33
  %36 = icmp slt i32 %2, 64
  br label %37

37:                                               ; preds = %35, %19, %9, %.thread, %22
  %.0 = phi i1 [ %32, %.thread ], [ %.1, %22 ], [ true, %9 ], [ true, %19 ], [ %36, %35 ]
  ret i1 %.0
}